; Function Attrs: nounwind uwtable
define internal fastcc ptr @call_trace_func(ptr noundef readonly captures(none) %0, ptr noundef %1) unnamed_addr #0 {
  %3 = alloca i32, align 4
  %4 = tail call align 8 ptr @llvm.threadlocal.address.p0(ptr align 8 @_Py_tss_tstate)
  %5 = load ptr, ptr %4, align 8, !tbaa !17
  %6 = getelementptr inbounds nuw i8, ptr %5, i64 88
  %7 = load ptr, ptr %6, align 8, !tbaa !107
  %8 = icmp eq ptr %7, null
  br i1 %8, label %45, label %9

9:                                                ; preds = %2
  %10 = tail call ptr @PyEval_GetFrame() #4
  %11 = icmp eq ptr %10, null
  br i1 %11, label %12, label %14

12:                                               ; preds = %9
  %13 = load ptr, ptr @PyExc_SystemError, align 8, !tbaa !111
  tail call void @PyErr_SetString(ptr noundef %13, ptr noundef nonnull @.str.4) #4
  br label %45

14:                                               ; preds = %9
  %15 = getelementptr inbounds nuw i8, ptr %10, i64 45
  %16 = load i8, ptr %15, align 1, !tbaa !110
  %.not = icmp eq i8 %16, 0
  br i1 %.not, label %28, label %17

17:                                               ; preds = %14
  %18 = getelementptr inbounds nuw i8, ptr %10, i64 24
  %19 = load ptr, ptr %18, align 8, !tbaa !4
  %.val.i = load i64, ptr %19, align 8, !tbaa !15
  %20 = inttoptr i64 %.val.i to ptr
  call void @llvm.lifetime.start.p0(i64 4, ptr nonnull %3) #4
  store i32 0, ptr %3, align 4, !tbaa !16
  %21 = call i32 @_PyMonitoring_GetLocalEvents(ptr noundef %20, i32 noundef 7, ptr noundef nonnull %3) #4
  %22 = icmp slt i32 %21, 0
  br i1 %22, label %_PyEval_SetOpcodeTrace.exit.thread18, label %23

_PyEval_SetOpcodeTrace.exit.thread18:             ; preds = %17
  call void @llvm.lifetime.end.p0(i64 4, ptr nonnull %3) #4
  br label %45

23:                                               ; preds = %17
  %24 = load i32, ptr %3, align 4, !tbaa !16
  %25 = and i32 %24, 64
  %.not4.i = icmp eq i32 %25, 0
  br i1 %.not4.i, label %_PyEval_SetOpcodeTrace.exit, label %_PyEval_SetOpcodeTrace.exit.thread

_PyEval_SetOpcodeTrace.exit.thread:               ; preds = %23
  call void @llvm.lifetime.end.p0(i64 4, ptr nonnull %3) #4
  br label %28

_PyEval_SetOpcodeTrace.exit:                      ; preds = %23
  %26 = or disjoint i32 %24, 64
  store i32 %26, ptr %3, align 4, !tbaa !16
  %27 = call i32 @_PyMonitoring_SetLocalEvents(ptr noundef %20, i32 noundef 7, i32 noundef %26) #4
  call void @llvm.lifetime.end.p0(i64 4, ptr nonnull %3) #4
  %.not14 = icmp eq i32 %27, 0
  br i1 %.not14, label %28, label %45

28:                                               ; preds = %_PyEval_SetOpcodeTrace.exit.thread, %_PyEval_SetOpcodeTrace.exit, %14
  %29 = load i32, ptr %10, align 8, !tbaa !15
  %30 = icmp slt i32 %29, 0
  br i1 %30, label %Py_INCREF.exit, label %31

31:                                               ; preds = %28
  %32 = add nuw i32 %29, 1
  store i32 %32, ptr %10, align 8, !tbaa !15
  br label %Py_INCREF.exit

Py_INCREF.exit:                                   ; preds = %28, %31
  %33 = load ptr, ptr %6, align 8, !tbaa !107
  %34 = getelementptr inbounds nuw i8, ptr %5, i64 104
  %35 = load ptr, ptr %34, align 8, !tbaa !108
  %36 = getelementptr inbounds nuw i8, ptr %0, i64 24
  %37 = load i32, ptr %36, align 8, !tbaa !102
  %38 = call i32 %33(ptr noundef %35, ptr noundef nonnull %10, i32 noundef %37, ptr noundef %1) #4
  %39 = getelementptr inbounds nuw i8, ptr %10, i64 40
  store i32 0, ptr %39, align 8, !tbaa !123
  %40 = load i32, ptr %10, align 8, !tbaa !15
  %.not.i = icmp sgt i32 %40, -1
  br i1 %.not.i, label %41, label %Py_DECREF.exit

41:                                               ; preds = %Py_INCREF.exit
  %42 = add nsw i32 %40, -1
  store i32 %42, ptr %10, align 8, !tbaa !15
  %43 = icmp eq i32 %42, 0
  br i1 %43, label %44, label %Py_DECREF.exit

44:                                               ; preds = %41
  call void @_Py_Dealloc(ptr noundef nonnull %10) #4
  br label %Py_DECREF.exit

Py_DECREF.exit:                                   ; preds = %Py_INCREF.exit, %41, %44
  %.not15 = icmp eq i32 %38, 0
  %_Py_NoneStruct. = select i1 %.not15, ptr @_Py_NoneStruct, ptr null
  br label %45

45:                                               ; preds = %_PyEval_SetOpcodeTrace.exit.thread18, %12, %Py_DECREF.exit, %_PyEval_SetOpcodeTrace.exit, %2
  %.0 = phi ptr [ @_Py_NoneStruct, %2 ], [ null, %12 ], [ %_Py_NoneStruct., %Py_DECREF.exit ], [ null, %_PyEval_SetOpcodeTrace.exit ], [ null, %_PyEval_SetOpcodeTrace.exit.thread18 ]
  ret ptr %.0
}